; Function Attrs: null_pointer_is_valid sspstrong uwtable
define internal i32 @dissect_sync(ptr noundef %0, ptr noundef readonly captures(none) %1, ptr noundef %2, ptr readnone captures(none) %3) #0 {
  %5 = getelementptr inbounds nuw i8, ptr %1, i64 8
  %6 = load ptr, ptr %5, align 8
  tail call void @col_set_str(ptr noundef %6, i32 noundef 25, ptr noundef nonnull @.str.2147)
  %7 = load i32, ptr @proto_docsis_sync, align 4
  %8 = tail call ptr @proto_tree_add_item(ptr noundef %2, i32 noundef %7, ptr noundef %0, i32 noundef 0, i32 noundef -1, i32 noundef 0)
  %9 = load i32, ptr @ett_docsis_sync, align 4
  %10 = tail call ptr @proto_item_add_subtree(ptr noundef %8, i32 noundef %9)
  %11 = load i32, ptr @hf_docsis_sync_cmts_timestamp, align 4
  %12 = tail call ptr @proto_tree_add_item(ptr noundef %10, i32 noundef %11, ptr noundef %0, i32 noundef 0, i32 noundef 4, i32 noundef 0)
  %13 = tail call i32 @tvb_captured_length(ptr noundef %0)
  ret i32 %13
}